ccopy_reg
_reconstructor
p0
(cgoogle.oauth2.credentials
Credentials
p1
c__builtin__
object
p2
Ntp3
Rp4
(dp5
S'_token_uri'
p6
Vhttps://oauth2.googleapis.com/token
p7
sS'_client_secret'
p8
VYpd-LOMyklFUwZy2YD76LLXb
p9
sS'_id_token'
p10
NsS'token'
p11
Vya29.Il-pBzl0CP83o-w6fth1ys1LwBan4klZ7gyMP9puT2awML1Tz9ZNTGe7___o-Dokx_EHg0X6BiVpSNbvrtJ8Zt1LAzXD49r5p_SzSVfi3VcMEH2djmpbJ15AAXAI_p9N5Q
p12
sS'_refresh_token'
p13
V1//031FbsRQgyu-MCgYIARAAGAMSNwF-L9IrTMwI9qJd4XNThYaCzBVxN3vTqZ8Ea_PFdsOuQtYzlJtsPdYR2PjyY-RtqyvNzjqc-W8
p14
sS'_scopes'
p15
(lp16
S'https://www.googleapis.com/auth/spreadsheets.readonly'
p17
asS'_client_id'
p18
V27542834748-qo4h9gach8b2ed3sfee24q55d320mgfv.apps.googleusercontent.com
p19
sS'expiry'
p20
cdatetime
datetime
p21
(S'\x07\xe3\n\x1a\x115\x12\x08*\x8e'
p22
tp23
Rp24
sb.